target datalayout = "e-m:e-p270:32:32-p271:32:32-p272:64:64-i64:64-i128:128-f80:128-n8:16:32:64-S128"
target triple = "x86_64-unknown-linux-gnu"

%"class.boost::detail::shared_count" = type { ptr }
%"class.QuantLib::Date" = type { i64 }
%"class.QuantLib::Period" = type { i32, i32 }
%"class.QuantLib::Calendar" = type { %"class.boost::shared_ptr.7" }
%"class.boost::shared_ptr.7" = type { ptr, %"class.boost::detail::shared_count" }

; Function Attrs: mustprogress nounwind uwtable
define linkonce_odr noundef i32 @_ZNK8QuantLib6Period5unitsEv(ptr noundef nonnull align 4 dereferenceable(8) %this) #1 comdat align 2 {
entry:
  %this.addr = alloca ptr, align 8
  store ptr %this, ptr %this.addr, align 8, !tbaa !3
  %this1 = load ptr, ptr %this.addr, align 8
  %units_ = getelementptr inbounds nuw %"class.QuantLib::Period", ptr %this1, i32 0, i32 1
  %0 = load i32, ptr %units_, align 4, !tbaa !147
  ret i32 %0
}

; Function Attrs: mustprogress nounwind uwtable
define linkonce_odr noundef i32 @_ZNK8QuantLib6Period6lengthEv(ptr noundef nonnull align 4 dereferenceable(8) %this) #1 comdat align 2 {
entry:
  %this.addr = alloca ptr, align 8
  store ptr %this, ptr %this.addr, align 8, !tbaa !3
  %this1 = load ptr, ptr %this.addr, align 8
  %length_ = getelementptr inbounds nuw %"class.QuantLib::Period", ptr %this1, i32 0, i32 0
  %0 = load i32, ptr %length_, align 4, !tbaa !146
  ret i32 %0
}

; Function Attrs: mustprogress nounwind uwtable
define linkonce_odr void @_ZN8QuantLib6PeriodC2EiNS_8TimeUnitE(ptr noundef nonnull align 4 dereferenceable(8) %this, i32 noundef %n, i32 noundef %units) unnamed_addr #1 comdat align 2 {
entry:
  %this.addr = alloca ptr, align 8
  %n.addr = alloca i32, align 4
  %units.addr = alloca i32, align 4
  store ptr %this, ptr %this.addr, align 8, !tbaa !3
  store i32 %n, ptr %n.addr, align 4, !tbaa !19
  store i32 %units, ptr %units.addr, align 4, !tbaa !21
  %this1 = load ptr, ptr %this.addr, align 8
  %length_ = getelementptr inbounds nuw %"class.QuantLib::Period", ptr %this1, i32 0, i32 0
  %0 = load i32, ptr %n.addr, align 4, !tbaa !19
  store i32 %0, ptr %length_, align 4, !tbaa !146
  %units_ = getelementptr inbounds nuw %"class.QuantLib::Period", ptr %this1, i32 0, i32 1
  %1 = load i32, ptr %units.addr, align 4, !tbaa !21
  store i32 %1, ptr %units_, align 4, !tbaa !147
  ret void
}

; Function Attrs: inlinehint mustprogress nounwind uwtable
define linkonce_odr noundef i64 @_ZNK8QuantLib4Date12serialNumberEv(ptr noundef nonnull align 8 dereferenceable(8) %this) #5 comdat align 2 {
entry:
  %this.addr = alloca ptr, align 8
  store ptr %this, ptr %this.addr, align 8, !tbaa !3
  %this1 = load ptr, ptr %this.addr, align 8
  %serialNumber_ = getelementptr inbounds nuw %"class.QuantLib::Date", ptr %this1, i32 0, i32 0
  %0 = load i64, ptr %serialNumber_, align 8, !tbaa !32
  ret i64 %0
}

; Function Attrs: inlinehint mustprogress uwtable
define linkonce_odr i64 @_ZNK8QuantLib4DateplERKNS_6PeriodE(ptr noundef nonnull align 8 dereferenceable(8) %this, ptr noundef nonnull align 4 dereferenceable(8) %p) #4 comdat align 2 {
entry:
  %retval = alloca %"class.QuantLib::Date", align 8
  %this.addr = alloca ptr, align 8
  %p.addr = alloca ptr, align 8
  store ptr %this, ptr %this.addr, align 8, !tbaa !3
  store ptr %p, ptr %p.addr, align 8, !tbaa !3
  %this1 = load ptr, ptr %this.addr, align 8
  %0 = load ptr, ptr %p.addr, align 8, !tbaa !3
  %call = call noundef i32 @_ZNK8QuantLib6Period6lengthEv(ptr noundef nonnull align 4 dereferenceable(8) %0)
  %1 = load ptr, ptr %p.addr, align 8, !tbaa !3
  %call2 = call noundef i32 @_ZNK8QuantLib6Period5unitsEv(ptr noundef nonnull align 4 dereferenceable(8) %1)
  %call3 = call i64 @_ZN8QuantLib4Date7advanceERKS0_iNS_8TimeUnitE(ptr noundef nonnull align 8 dereferenceable(8) %this1, i32 noundef %call, i32 noundef %call2)
  %coerce.dive = getelementptr inbounds nuw %"class.QuantLib::Date", ptr %retval, i32 0, i32 0
  store i64 %call3, ptr %coerce.dive, align 8
  %coerce.dive4 = getelementptr inbounds nuw %"class.QuantLib::Date", ptr %retval, i32 0, i32 0
  %2 = load i64, ptr %coerce.dive4, align 8
  ret i64 %2
}

; Function Attrs: inlinehint mustprogress uwtable
define linkonce_odr i64 @_ZNK8QuantLib4DatemiERKNS_6PeriodE(ptr noundef nonnull align 8 dereferenceable(8) %this, ptr noundef nonnull align 4 dereferenceable(8) %p) #4 comdat align 2 {
entry:
  %retval = alloca %"class.QuantLib::Date", align 8
  %this.addr = alloca ptr, align 8
  %p.addr = alloca ptr, align 8
  store ptr %this, ptr %this.addr, align 8, !tbaa !3
  store ptr %p, ptr %p.addr, align 8, !tbaa !3
  %this1 = load ptr, ptr %this.addr, align 8
  %0 = load ptr, ptr %p.addr, align 8, !tbaa !3
  %call = call noundef i32 @_ZNK8QuantLib6Period6lengthEv(ptr noundef nonnull align 4 dereferenceable(8) %0)
  %sub = sub nsw i32 0, %call
  %1 = load ptr, ptr %p.addr, align 8, !tbaa !3
  %call2 = call noundef i32 @_ZNK8QuantLib6Period5unitsEv(ptr noundef nonnull align 4 dereferenceable(8) %1)
  %call3 = call i64 @_ZN8QuantLib4Date7advanceERKS0_iNS_8TimeUnitE(ptr noundef nonnull align 8 dereferenceable(8) %this1, i32 noundef %sub, i32 noundef %call2)
  %coerce.dive = getelementptr inbounds nuw %"class.QuantLib::Date", ptr %retval, i32 0, i32 0
  store i64 %call3, ptr %coerce.dive, align 8
  %coerce.dive4 = getelementptr inbounds nuw %"class.QuantLib::Date", ptr %retval, i32 0, i32 0
  %2 = load i64, ptr %coerce.dive4, align 8
  ret i64 %2
}

; Function Attrs: inlinehint mustprogress uwtable
define linkonce_odr i64 @_ZN8QuantLibmlIiEENS_6PeriodET_NS_8TimeUnitE(i32 noundef %n, i32 noundef %units) #4 comdat {
entry:
  %retval = alloca %"class.QuantLib::Period", align 4
  %n.addr = alloca i32, align 4
  %units.addr = alloca i32, align 4
  store i32 %n, ptr %n.addr, align 4, !tbaa !19
  store i32 %units, ptr %units.addr, align 4, !tbaa !21
  %0 = load i32, ptr %n.addr, align 4, !tbaa !19
  %1 = load i32, ptr %units.addr, align 4, !tbaa !21
  call void @_ZN8QuantLib6PeriodC2EiNS_8TimeUnitE(ptr noundef nonnull align 4 dereferenceable(8) %retval, i32 noundef %0, i32 noundef %1)
  %2 = load i64, ptr %retval, align 4
  ret i64 %2
}

; Function Attrs: inlinehint mustprogress nounwind uwtable
define linkonce_odr noundef i32 @_ZNK8QuantLib4Date7weekdayEv(ptr noundef nonnull align 8 dereferenceable(8) %this) #5 comdat align 2 {
entry:
  %this.addr = alloca ptr, align 8
  %w = alloca i32, align 4
  store ptr %this, ptr %this.addr, align 8, !tbaa !3
  %this1 = load ptr, ptr %this.addr, align 8
  call void @llvm.lifetime.start.p0(i64 4, ptr %w) #12
  %serialNumber_ = getelementptr inbounds nuw %"class.QuantLib::Date", ptr %this1, i32 0, i32 0
  %0 = load i64, ptr %serialNumber_, align 8, !tbaa !32
  %rem = srem i64 %0, 7
  %conv = trunc i64 %rem to i32
  store i32 %conv, ptr %w, align 4, !tbaa !19
  %1 = load i32, ptr %w, align 4, !tbaa !19
  %cmp = icmp eq i32 %1, 0
  br i1 %cmp, label %cond.true, label %cond.false

cond.true:                                        ; preds = %entry
  br label %cond.end

cond.false:                                       ; preds = %entry
  %2 = load i32, ptr %w, align 4, !tbaa !19
  br label %cond.end

cond.end:                                         ; preds = %cond.false, %cond.true
  %cond = phi i32 [ 7, %cond.true ], [ %2, %cond.false ]
  call void @llvm.lifetime.end.p0(i64 4, ptr %w) #12
  ret i32 %cond
}

; Function Attrs: inlinehint mustprogress uwtable
define linkonce_odr noundef zeroext i1 @_ZN8QuantLibltERKNS_4DateES2_(ptr noundef nonnull align 8 dereferenceable(8) %d1, ptr noundef nonnull align 8 dereferenceable(8) %d2) #4 comdat {
entry:
  %d1.addr = alloca ptr, align 8
  %d2.addr = alloca ptr, align 8
  store ptr %d1, ptr %d1.addr, align 8, !tbaa !3
  store ptr %d2, ptr %d2.addr, align 8, !tbaa !3
  %0 = load ptr, ptr %d1.addr, align 8, !tbaa !3
  %call = call noundef i64 @_ZNK8QuantLib4Date12serialNumberEv(ptr noundef nonnull align 8 dereferenceable(8) %0)
  %1 = load ptr, ptr %d2.addr, align 8, !tbaa !3
  %call1 = call noundef i64 @_ZNK8QuantLib4Date12serialNumberEv(ptr noundef nonnull align 8 dereferenceable(8) %1)
  %cmp = icmp slt i64 %call, %call1
  ret i1 %cmp
}

; Function Attrs: mustprogress uwtable
define internal i64 @_ZN8QuantLib12_GLOBAL__N_117previousWednesdayERKNS_4DateE(ptr noundef nonnull align 8 dereferenceable(8) %date) #2 {
entry:
  %retval = alloca %"class.QuantLib::Date", align 8
  %date.addr = alloca ptr, align 8
  %w = alloca i32, align 4
  %ref.tmp = alloca %"class.QuantLib::Period", align 4
  %cleanup.dest.slot = alloca i32, align 4
  %ref.tmp3 = alloca %"class.QuantLib::Period", align 4
  store ptr %date, ptr %date.addr, align 8, !tbaa !3
  call void @llvm.lifetime.start.p0(i64 4, ptr %w) #12
  %0 = load ptr, ptr %date.addr, align 8, !tbaa !3
  %call = call noundef i32 @_ZNK8QuantLib4Date7weekdayEv(ptr noundef nonnull align 8 dereferenceable(8) %0)
  store i32 %call, ptr %w, align 4, !tbaa !29
  %1 = load i32, ptr %w, align 4, !tbaa !29
  %cmp = icmp sge i32 %1, 4
  br i1 %cmp, label %if.then, label %if.else

if.then:                                          ; preds = %entry
  %2 = load ptr, ptr %date.addr, align 8, !tbaa !3
  call void @llvm.lifetime.start.p0(i64 8, ptr %ref.tmp) #12
  %3 = load i32, ptr %w, align 4, !tbaa !29
  %sub = sub nsw i32 %3, 4
  %call1 = call i64 @_ZN8QuantLibmlIiEENS_6PeriodET_NS_8TimeUnitE(i32 noundef %sub, i32 noundef 0)
  store i64 %call1, ptr %ref.tmp, align 4
  %call2 = call i64 @_ZNK8QuantLib4DatemiERKNS_6PeriodE(ptr noundef nonnull align 8 dereferenceable(8) %2, ptr noundef nonnull align 4 dereferenceable(8) %ref.tmp)
  %coerce.dive = getelementptr inbounds nuw %"class.QuantLib::Date", ptr %retval, i32 0, i32 0
  store i64 %call2, ptr %coerce.dive, align 8
  call void @llvm.lifetime.end.p0(i64 8, ptr %ref.tmp) #12
  store i32 1, ptr %cleanup.dest.slot, align 4
  br label %cleanup

if.else:                                          ; preds = %entry
  %4 = load ptr, ptr %date.addr, align 8, !tbaa !3
  call void @llvm.lifetime.start.p0(i64 8, ptr %ref.tmp3) #12
  %5 = load i32, ptr %w, align 4, !tbaa !29
  %sub4 = sub nsw i32 4, %5
  %sub5 = sub nsw i32 %sub4, 7
  %call6 = call i64 @_ZN8QuantLibmlIiEENS_6PeriodET_NS_8TimeUnitE(i32 noundef %sub5, i32 noundef 0)
  store i64 %call6, ptr %ref.tmp3, align 4
  %call7 = call i64 @_ZNK8QuantLib4DateplERKNS_6PeriodE(ptr noundef nonnull align 8 dereferenceable(8) %4, ptr noundef nonnull align 4 dereferenceable(8) %ref.tmp3)
  %coerce.dive8 = getelementptr inbounds nuw %"class.QuantLib::Date", ptr %retval, i32 0, i32 0
  store i64 %call7, ptr %coerce.dive8, align 8
  call void @llvm.lifetime.end.p0(i64 8, ptr %ref.tmp3) #12
  store i32 1, ptr %cleanup.dest.slot, align 4
  br label %cleanup

cleanup:                                          ; preds = %if.else, %if.then
  call void @llvm.lifetime.end.p0(i64 4, ptr %w) #12
  %coerce.dive9 = getelementptr inbounds nuw %"class.QuantLib::Date", ptr %retval, i32 0, i32 0
  %6 = load i64, ptr %coerce.dive9, align 8
  ret i64 %6
}

; Function Attrs: mustprogress uwtable
define noundef zeroext i1 @_ZNK8QuantLib8BMAIndex17isValidFixingDateERKNS_4DateE(ptr noundef nonnull align 8 dereferenceable(256) %this, ptr noundef nonnull align 8 dereferenceable(8) %date) unnamed_addr #2 align 2 personality ptr @__gxx_personality_v0 {
entry:
  %retval = alloca i1, align 1
  %this.addr = alloca ptr, align 8
  %date.addr = alloca ptr, align 8
  %cal = alloca %"class.QuantLib::Calendar", align 8
  %d = alloca %"class.QuantLib::Date", align 8
  %exn.slot = alloca ptr, align 8
  %ehselector.slot = alloca i32, align 4
  %cleanup.dest.slot = alloca i32, align 4
  store ptr %this, ptr %this.addr, align 8, !tbaa !3
  store ptr %date, ptr %date.addr, align 8, !tbaa !3
  %this1 = load ptr, ptr %this.addr, align 8
  call void @llvm.lifetime.start.p0(i64 16, ptr %cal) #12
  %vtable = load ptr, ptr %this1, align 8, !tbaa !12
  %vfn = getelementptr inbounds ptr, ptr %vtable, i64 3
  %0 = load ptr, ptr %vfn, align 8
  call void %0(ptr dead_on_unwind writable sret(%"class.QuantLib::Calendar") align 8 %cal, ptr noundef nonnull align 8 dereferenceable(240) %this1)
  call void @llvm.lifetime.start.p0(i64 8, ptr %d) #12
  %1 = load ptr, ptr %date.addr, align 8, !tbaa !3
  %call = invoke i64 @_ZN8QuantLib12_GLOBAL__N_117previousWednesdayERKNS_4DateE(ptr noundef nonnull align 8 dereferenceable(8) %1)
          to label %invoke.cont unwind label %lpad

invoke.cont:                                      ; preds = %entry
  %coerce.dive = getelementptr inbounds nuw %"class.QuantLib::Date", ptr %d, i32 0, i32 0
  store i64 %call, ptr %coerce.dive, align 8
  br label %for.cond

for.cond:                                         ; preds = %invoke.cont6, %invoke.cont
  %2 = load ptr, ptr %date.addr, align 8, !tbaa !3
  %call3 = invoke noundef zeroext i1 @_ZN8QuantLibltERKNS_4DateES2_(ptr noundef nonnull align 8 dereferenceable(8) %d, ptr noundef nonnull align 8 dereferenceable(8) %2)
          to label %invoke.cont2 unwind label %lpad

invoke.cont2:                                     ; preds = %for.cond
  br i1 %call3, label %for.body, label %for.cond.cleanup

for.cond.cleanup:                                 ; preds = %invoke.cont2
  store i32 2, ptr %cleanup.dest.slot, align 4
  br label %cleanup

lpad:                                             ; preds = %for.inc, %for.body, %for.cond, %entry
  %3 = landingpad { ptr, i32 }
          cleanup
  %4 = extractvalue { ptr, i32 } %3, 0
  store ptr %4, ptr %exn.slot, align 8
  %5 = extractvalue { ptr, i32 } %3, 1
  store i32 %5, ptr %ehselector.slot, align 4
  call void @llvm.lifetime.end.p0(i64 8, ptr %d) #12
  br label %ehcleanup

for.body:                                         ; preds = %invoke.cont2
  %call5 = invoke noundef zeroext i1 @_ZNK8QuantLib8Calendar13isBusinessDayERKNS_4DateE(ptr noundef nonnull align 8 dereferenceable(16) %cal, ptr noundef nonnull align 8 dereferenceable(8) %d)
          to label %invoke.cont4 unwind label %lpad

invoke.cont4:                                     ; preds = %for.body
  br i1 %call5, label %if.then, label %if.end

if.then:                                          ; preds = %invoke.cont4
  store i1 false, ptr %retval, align 1
  store i32 1, ptr %cleanup.dest.slot, align 4
  br label %cleanup

if.end:                                           ; preds = %invoke.cont4
  br label %for.inc

for.inc:                                          ; preds = %if.end
  %call7 = invoke noundef nonnull align 8 dereferenceable(8) ptr @_ZN8QuantLib4DateppEv(ptr noundef nonnull align 8 dereferenceable(8) %d)
          to label %invoke.cont6 unwind label %lpad

invoke.cont6:                                     ; preds = %for.inc
  br label %for.cond, !llvm.loop !27

cleanup:                                          ; preds = %if.then, %for.cond.cleanup
  call void @llvm.lifetime.end.p0(i64 8, ptr %d) #12
  %cleanup.dest = load i32, ptr %cleanup.dest.slot, align 4
  switch i32 %cleanup.dest, label %cleanup11 [
    i32 2, label %for.end
  ]

for.end:                                          ; preds = %cleanup
  %6 = load ptr, ptr %date.addr, align 8, !tbaa !3
  %call10 = invoke noundef zeroext i1 @_ZNK8QuantLib8Calendar13isBusinessDayERKNS_4DateE(ptr noundef nonnull align 8 dereferenceable(16) %cal, ptr noundef nonnull align 8 dereferenceable(8) %6)
          to label %invoke.cont9 unwind label %lpad8

invoke.cont9:                                     ; preds = %for.end
  store i1 %call10, ptr %retval, align 1
  store i32 1, ptr %cleanup.dest.slot, align 4
  br label %cleanup11

lpad8:                                            ; preds = %for.end
  %7 = landingpad { ptr, i32 }
          cleanup
  %8 = extractvalue { ptr, i32 } %7, 0
  store ptr %8, ptr %exn.slot, align 8
  %9 = extractvalue { ptr, i32 } %7, 1
  store i32 %9, ptr %ehselector.slot, align 4
  br label %ehcleanup

cleanup11:                                        ; preds = %invoke.cont9, %cleanup
  call void @_ZN8QuantLib8CalendarD2Ev(ptr noundef nonnull align 8 dereferenceable(16) %cal) #12
  call void @llvm.lifetime.end.p0(i64 16, ptr %cal) #12
  %10 = load i1, ptr %retval, align 1
  ret i1 %10

ehcleanup:                                        ; preds = %lpad8, %lpad
  call void @_ZN8QuantLib8CalendarD2Ev(ptr noundef nonnull align 8 dereferenceable(16) %cal) #12
  call void @llvm.lifetime.end.p0(i64 16, ptr %cal) #12
  br label %eh.resume

eh.resume:                                        ; preds = %ehcleanup
  %exn = load ptr, ptr %exn.slot, align 8
  %sel = load i32, ptr %ehselector.slot, align 4
  %lpad.val = insertvalue { ptr, i32 } poison, ptr %exn, 0
  %lpad.val14 = insertvalue { ptr, i32 } %lpad.val, i32 %sel, 1
  resume { ptr, i32 } %lpad.val14
}