; Function Attrs: mustprogress uwtable
define noundef zeroext i1 @_ZNK8QuantLib8BMAIndex17isValidFixingDateERKNS_4DateE(ptr noundef nonnull align 8 dereferenceable(256) %this, ptr noundef nonnull align 8 dereferenceable(8) %date) unnamed_addr #6 align 2 personality ptr @__gxx_personality_v0 {
entry:
  %cal = alloca %"class.QuantLib::Calendar", align 8
  %d = alloca %"class.QuantLib::Date", align 8
  call void @llvm.lifetime.start.p0(i64 16, ptr nonnull %cal) #24
  %vtable = load ptr, ptr %this, align 8, !tbaa !28
  %vfn = getelementptr inbounds i8, ptr %vtable, i64 24
  %0 = load ptr, ptr %vfn, align 8
  call void %0(ptr dead_on_unwind nonnull writable sret(%"class.QuantLib::Calendar") align 8 %cal, ptr noundef nonnull align 8 dereferenceable(240) %this)
  call void @llvm.lifetime.start.p0(i64 8, ptr nonnull %d) #24
  %1 = load i64, ptr %date, align 8, !tbaa !35
  %rem.i.i = srem i64 %1, 7
  %conv.i.i = trunc nsw i64 %rem.i.i to i32
  %cmp.i.i = icmp eq i64 %rem.i.i, 0
  %cond.i.i = select i1 %cmp.i.i, i32 7, i32 %conv.i.i
  %cmp.inv.i = icmp slt i32 %cond.i.i, 4
  %..i = select i1 %cmp.inv.i, i32 -3, i32 4
  %sub5.i = sub nsw i32 %..i, %cond.i.i
  %call3.i7.i4 = invoke i64 @_ZN8QuantLib4Date7advanceERKS0_iNS_8TimeUnitE(ptr noundef nonnull align 8 dereferenceable(8) %date, i32 noundef %sub5.i, i32 noundef 0)
          to label %invoke.cont unwind label %lpad.loopexit.split-lp

invoke.cont:                                      ; preds = %entry
  store i64 %call3.i7.i4, ptr %d, align 8
  br label %invoke.cont2

invoke.cont2:                                     ; preds = %invoke.cont, %for.inc
  %2 = load i64, ptr %d, align 8, !tbaa !35
  %3 = load i64, ptr %date, align 8, !tbaa !35
  %cmp.i = icmp slt i64 %2, %3
  br i1 %cmp.i, label %for.body, label %for.end

lpad.loopexit:                                    ; preds = %for.body, %for.inc
  %lpad.loopexit5 = landingpad { ptr, i32 }
          cleanup
  br label %lpad

lpad.loopexit.split-lp:                           ; preds = %entry
  %lpad.loopexit.split-lp6 = landingpad { ptr, i32 }
          cleanup
  br label %lpad

lpad:                                             ; preds = %lpad.loopexit.split-lp, %lpad.loopexit
  %lpad.phi = phi { ptr, i32 } [ %lpad.loopexit5, %lpad.loopexit ], [ %lpad.loopexit.split-lp6, %lpad.loopexit.split-lp ]
  call void @llvm.lifetime.end.p0(i64 8, ptr nonnull %d) #24
  br label %ehcleanup

for.body:                                         ; preds = %invoke.cont2
  %call5 = invoke noundef zeroext i1 @_ZNK8QuantLib8Calendar13isBusinessDayERKNS_4DateE(ptr noundef nonnull align 8 dereferenceable(16) %cal, ptr noundef nonnull align 8 dereferenceable(8) %d)
          to label %invoke.cont4 unwind label %lpad.loopexit

invoke.cont4:                                     ; preds = %for.body
  br i1 %call5, label %cleanup, label %for.inc

for.inc:                                          ; preds = %invoke.cont4
  %call7 = invoke noundef nonnull align 8 dereferenceable(8) ptr @_ZN8QuantLib4DateppEv(ptr noundef nonnull align 8 dereferenceable(8) %d)
          to label %invoke.cont2 unwind label %lpad.loopexit, !llvm.loop !75

cleanup:                                          ; preds = %invoke.cont4
  call void @llvm.lifetime.end.p0(i64 8, ptr nonnull %d) #24
  br label %cleanup11

for.end:                                          ; preds = %invoke.cont2
  call void @llvm.lifetime.end.p0(i64 8, ptr nonnull %d) #24
  %call10 = invoke noundef zeroext i1 @_ZNK8QuantLib8Calendar13isBusinessDayERKNS_4DateE(ptr noundef nonnull align 8 dereferenceable(16) %cal, ptr noundef nonnull align 8 dereferenceable(8) %date)
          to label %cleanup11 unwind label %lpad8

lpad8:                                            ; preds = %for.end
  %4 = landingpad { ptr, i32 }
          cleanup
  br label %ehcleanup

cleanup11:                                        ; preds = %cleanup, %for.end
  %retval.1 = phi i1 [ false, %cleanup ], [ %call10, %for.end ]
  %pn.i.i = getelementptr inbounds nuw i8, ptr %cal, i64 8
  %5 = load ptr, ptr %pn.i.i, align 8, !tbaa !44
  %cmp.not.i.i.i = icmp eq ptr %5, null
  br i1 %cmp.not.i.i.i, label %_ZN8QuantLib8CalendarD2Ev.exit, label %if.then.i.i.i

if.then.i.i.i:                                    ; preds = %cleanup11
  %use_count_.i.i.i.i = getelementptr inbounds nuw i8, ptr %5, i64 8
  %6 = atomicrmw sub ptr %use_count_.i.i.i.i, i32 1 acq_rel, align 4
  %cmp.i.i.i.i = icmp eq i32 %6, 1
  br i1 %cmp.i.i.i.i, label %if.then.i.i.i.i, label %_ZN8QuantLib8CalendarD2Ev.exit

if.then.i.i.i.i:                                  ; preds = %if.then.i.i.i
  %vtable.i.i.i.i = load ptr, ptr %5, align 8, !tbaa !28
  %vfn.i.i.i.i = getelementptr inbounds i8, ptr %vtable.i.i.i.i, i64 16
  %7 = load ptr, ptr %vfn.i.i.i.i, align 8
  invoke void %7(ptr noundef nonnull align 8 dereferenceable(16) %5)
          to label %.noexc.i.i.i unwind label %terminate.lpad.i.i.i

.noexc.i.i.i:                                     ; preds = %if.then.i.i.i.i
  %weak_count_.i.i.i.i.i = getelementptr inbounds nuw i8, ptr %5, i64 12
  %8 = atomicrmw sub ptr %weak_count_.i.i.i.i.i, i32 1 acq_rel, align 4
  %cmp.i.i.i.i.i = icmp eq i32 %8, 1
  br i1 %cmp.i.i.i.i.i, label %if.then.i.i.i.i.i, label %_ZN8QuantLib8CalendarD2Ev.exit

if.then.i.i.i.i.i:                                ; preds = %.noexc.i.i.i
  %vtable.i.i.i.i.i = load ptr, ptr %5, align 8, !tbaa !28
  %vfn.i.i.i.i.i = getelementptr inbounds i8, ptr %vtable.i.i.i.i.i, i64 24
  %9 = load ptr, ptr %vfn.i.i.i.i.i, align 8
  invoke void %9(ptr noundef nonnull align 8 dereferenceable(16) %5)
          to label %_ZN8QuantLib8CalendarD2Ev.exit unwind label %terminate.lpad.i.i.i

terminate.lpad.i.i.i:                             ; preds = %if.then.i.i.i.i.i, %if.then.i.i.i.i
  %10 = landingpad { ptr, i32 }
          catch ptr null
  %11 = extractvalue { ptr, i32 } %10, 0
  call void @__clang_call_terminate(ptr %11) #25
  unreachable

_ZN8QuantLib8CalendarD2Ev.exit:                   ; preds = %cleanup11, %if.then.i.i.i, %.noexc.i.i.i, %if.then.i.i.i.i.i
  call void @llvm.lifetime.end.p0(i64 16, ptr nonnull %cal) #24
  ret i1 %retval.1

ehcleanup:                                        ; preds = %lpad8, %lpad
  %.pn = phi { ptr, i32 } [ %4, %lpad8 ], [ %lpad.phi, %lpad ]
  call void @_ZN8QuantLib8CalendarD2Ev(ptr noundef nonnull align 8 dereferenceable(16) %cal) #24
  call void @llvm.lifetime.end.p0(i64 16, ptr nonnull %cal) #24
  resume { ptr, i32 } %.pn
}